target datalayout = "e-m:e-p270:32:32-p271:32:32-p272:64:64-i64:64-i128:128-f80:128-n8:16:32:64-S128"
target triple = "x86_64-unknown-linux-gnu"

; Function Attrs: mustprogress uwtable
define noundef zeroext i1 @_ZN6google8protobuf11MessageLite27ParsePartialFromCodedStreamEPNS0_2io16CodedInputStreamE(ptr noundef nonnull align 8 dereferenceable(16) %this, ptr noundef %input) #4 align 2 {
entry:
  %this.addr = alloca ptr, align 8
  %input.addr = alloca ptr, align 8
  store ptr %this, ptr %this.addr, align 8
  store ptr %input, ptr %input.addr, align 8
  %this1 = load ptr, ptr %this.addr, align 8
  %vtable = load ptr, ptr %this1, align 8
  %vfn = getelementptr inbounds ptr, ptr %vtable, i64 3
  %0 = load ptr, ptr %vfn, align 8
  call void %0(ptr noundef nonnull align 8 dereferenceable(16) %this1)
  %1 = load ptr, ptr %input.addr, align 8
  %call = call noundef zeroext i1 @_ZN6google8protobuf11MessageLite13MergeFromImplEPNS0_2io16CodedInputStreamENS1_10ParseFlagsE(ptr noundef nonnull align 8 dereferenceable(16) %this1, ptr noundef %1, i32 noundef 3)
  ret i1 %call
}