; Function Attrs: mustprogress uwtable
define noundef zeroext i1 @_ZN6google8protobuf11MessageLite27ParsePartialFromCodedStreamEPNS0_2io16CodedInputStreamE(ptr noundef nonnull align 8 dereferenceable(16) %this, ptr noundef %input) local_unnamed_addr #3 align 2 {
entry:
  %vtable = load ptr, ptr %this, align 8
  %vfn = getelementptr inbounds i8, ptr %vtable, i64 24
  %0 = load ptr, ptr %vfn, align 8
  tail call void %0(ptr noundef nonnull align 8 dereferenceable(16) %this)
  %call = tail call noundef zeroext i1 @_ZN6google8protobuf11MessageLite13MergeFromImplEPNS0_2io16CodedInputStreamENS1_10ParseFlagsE(ptr noundef nonnull align 8 dereferenceable(16) %this, ptr noundef %input, i32 noundef 3)
  ret i1 %call
}